; Function Attrs: mustprogress uwtable
define noalias noundef nonnull ptr @_ZNK5Ipopt15SymTMatrixSpace23AllocateInternalStorageEv(ptr noundef nonnull readonly align 8 captures(none) dereferenceable(40) %0) local_unnamed_addr #0 align 2 {
  %2 = getelementptr inbounds nuw i8, ptr %0, i64 20
  %3 = load i32, ptr %2, align 4, !tbaa !34
  %4 = sext i32 %3 to i64
  %5 = icmp slt i32 %3, 0
  %6 = shl nsw i64 %4, 3
  %7 = select i1 %5, i64 -1, i64 %6
  %8 = tail call noalias noundef nonnull ptr @_Znam(i64 noundef %7) #17
  ret ptr %8
}